(dp1
S'OriginalConfig'
p2
ccopy_reg
_reconstructor
p3
(cWMCore.Configuration
Configuration
p4
c__builtin__
object
p5
NtRp6
(dp7
S'Site'
p8
g3
(cWMCore.Configuration
ConfigSection
p9
g5
NtRp10
(dp11
S'_internal_skipChecks'
p12
I00
sS'_internal_documentation'
p13
S''
sS'_internal_settings'
p14
c__builtin__
set
p15
((lp16
S'storageSite'
p17
atRp18
sS'_internal_name'
p19
g8
sS'_internal_docstrings'
p20
(dp21
sS'_internal_children'
p22
g15
((ltRp23
sg17
S'T2_US_Vanderbilt'
p24
sS'_internal_parent_ref'
p25
NsbsS'_internal_sections'
p26
(lp27
S'General'
p28
aS'JobType'
p29
aS'Data'
p30
aS'User'
p31
ag8
asg28
g3
(g9
g5
NtRp32
(dp33
S'workArea'
p34
S'crab_projects'
p35
sg12
I00
sg13
S''
sg14
g15
((lp36
g34
aS'transferOutputs'
p37
aS'transferLogs'
p38
aS'requestName'
p39
atRp40
sg19
g28
sg20
(dp41
sg37
I01
sg22
g15
((ltRp42
sg39
S'pPb2016_pPb_HM120_0'
p43
sg25
Nsg38
I01
sbsS'_internal_webapps'
p44
(lp45
sg31
g3
(g9
g5
NtRp46
(dp47
g12
I00
sg13
S''
sg14
g15
((ltRp48
sg19
g31
sg20
(dp49
sg22
g15
((ltRp50
sg25
NsbsS'_internal_components'
p51
(lp52
sg30
g3
(g9
g5
NtRp53
(dp54
S'inputDataset'
p55
S'/PAHighMultiplicity0/PARun2016C-PromptReco-v1/AOD'
p56
sg12
I00
sS'unitsPerJob'
p57
I80
sg13
S''
sg14
g15
((lp58
g55
aS'publication'
p59
ag57
aS'splitting'
p60
aS'lumiMask'
p61
aS'outLFNDirBase'
p62
aS'runRange'
p63
atRp64
sg19
g30
sg60
S'LumiBased'
p65
sg20
(dp66
sg22
g15
((ltRp67
sg62
S'/store/user/ssanders/pPb2016_pPb_HM120_0'
p68
sg25
Nsg61
S'Cert_285479-285832_HI8TeV_PromptReco_pPb_Collisions16_JSON_NoL1T.txt'
p69
sg63
S'285479-285832'
p70
sg59
I00
sbsg29
g3
(g9
g5
NtRp71
(dp72
S'outputFiles'
p73
(lp74
S'vnanal.root'
p75
asg12
I00
sS'pyCfgParams'
p76
(lp77
S'noprint'
p78
aS'ntrkMin=120'
p79
aS'lumifile=Cert_285479-285832_HI8TeV_PromptReco_pPb_Collisions16_JSON_NoL1T.txt'
p80
aS'offset=offset_pPb2016_pPb_HM120.root'
p81
asg13
S''
sg14
g15
((lp82
g73
ag76
aS'pluginName'
p83
aS'psetName'
p84
aS'inputFiles'
p85
aS'maxJobRuntimeMin'
p86
atRp87
sg19
g29
sg85
(lp88
g69
aS'HeavyIonRPRcd_pPb2016_HM120_offline.db'
p89
aS'offset_pPb2016_pPb_HM120.root'
p90
asg20
(dp91
sg83
S'Analysis'
p92
sg22
g15
((ltRp93
sg84
S'/home/sanders/pPb_2016_v0/VNAnalysis/vnanalysis_cfg.py'
p94
sg25
Nsg86
I1315
sbsbsS'voGroup'
p95
S''
sS'Server'
p96
S'cmsweb.cern.ch'
p97
sS'instance'
p98
S'prod'
p99
sS'RequestName'
p100
V190828_212904:ssanders_crab_pPb2016_pPb_HM120_0
p101
sS'voRole'
p102
S'NULL'
p103
sS'Port'
p104
S''
s.