(dp1
S'OriginalConfig'
p2
ccopy_reg
_reconstructor
p3
(cWMCore.Configuration
Configuration
p4
c__builtin__
object
p5
NtRp6
(dp7
S'Site'
p8
g3
(cWMCore.Configuration
ConfigSection
p9
g5
NtRp10
(dp11
S'_internal_skipChecks'
p12
I00
sS'_internal_documentation'
p13
S''
sS'_internal_settings'
p14
c__builtin__
set
p15
((lp16
S'ignoreGlobalBlacklist'
p17
aS'whitelist'
p18
aS'storageSite'
p19
atRp20
sS'_internal_name'
p21
g8
sS'_internal_docstrings'
p22
(dp23
sS'_internal_children'
p24
g15
((ltRp25
sg19
S'T2_US_Vanderbilt'
p26
sg17
I01
sS'_internal_parent_ref'
p27
Nsg18
(lp28
g26
asbsS'_internal_sections'
p29
(lp30
S'General'
p31
aS'JobType'
p32
aS'Data'
p33
aS'User'
p34
ag8
asg31
g3
(g9
g5
NtRp35
(dp36
S'workArea'
p37
S'crab_projects'
p38
sg12
I00
sg13
S''
sg14
g15
((lp39
g37
aS'transferOutputs'
p40
aS'transferLogs'
p41
aS'requestName'
p42
atRp43
sg21
g31
sg22
(dp44
sg40
I01
sg24
g15
((ltRp45
sg42
S'pPb2016_pPb_HM150_Ks'
p46
sg27
Nsg41
I01
sbsS'_internal_webapps'
p47
(lp48
sg34
g3
(g9
g5
NtRp49
(dp50
g12
I00
sg13
S''
sg14
g15
((ltRp51
sg21
g34
sg22
(dp52
sg24
g15
((ltRp53
sg27
NsbsS'_internal_components'
p54
(lp55
sg33
g3
(g9
g5
NtRp56
(dp57
S'inputDataset'
p58
S'/PAHighMultiplicity0/davidlw-RecoSkim2016_pPb_V0Cascade_v1-97be9aa52ea60cba5455e64649c12464/USER'
p59
sS'inputDBS'
p60
S'phys03'
p61
sg12
I00
sS'unitsPerJob'
p62
I25
sg13
S''
sg14
g15
((lp63
g58
ag60
aS'publication'
p64
ag62
aS'ignoreLocality'
p65
aS'splitting'
p66
aS'lumiMask'
p67
aS'useParent'
p68
aS'outLFNDirBase'
p69
aS'runRange'
p70
atRp71
sg65
I01
sg21
g33
sg66
S'LumiBased'
p72
sg22
(dp73
sg68
I01
sg24
g15
((ltRp74
sg69
S'/store/user/ssanders/pPb2016_pPb_HM150_Ks'
p75
sg27
Nsg67
S'Cert_285479-285832_HI8TeV_PromptReco_pPb_Collisions16_JSON_NoL1T.txt'
p76
sg70
S'285479-285832'
p77
sg64
I00
sbsg32
g3
(g9
g5
NtRp78
(dp79
S'outputFiles'
p80
(lp81
S'vnanal.root'
p82
asg12
I00
sS'pyCfgParams'
p83
(lp84
S'noprint'
p85
aS'ntrkMin=150'
p86
aS'reaction=pPb'
p87
aS'lumifile=Cert_285479-285832_HI8TeV_PromptReco_pPb_Collisions16_JSON_NoL1T.txt'
p88
asg13
S''
sg14
g15
((lp89
S'psetName'
p90
aS'pluginName'
p91
ag80
ag83
aS'inputFiles'
p92
atRp93
sg21
g32
sg22
(dp94
sg91
S'Analysis'
p95
sg24
g15
((ltRp96
sg90
S'/home/sanders/pPb_2016_v0/VNAnalysis_v0/vnanalysis_cfg.py'
p97
sg27
Nsg92
(lp98
g76
aS'HeavyIonRPRcd_pPb2016_HM150_offline.db'
p99
asbsbsS'voGroup'
p100
S''
sS'Server'
p101
S'cmsweb.cern.ch'
p102
sS'instance'
p103
S'prod'
p104
sS'RequestName'
p105
V200110_172239:ssanders_crab_pPb2016_pPb_HM150_Ks
p106
sS'voRole'
p107
S'NULL'
p108
sS'Port'
p109
S''
s.